target datalayout = "e-m:e-p270:32:32-p271:32:32-p272:64:64-i64:64-i128:128-f80:128-n8:16:32:64-S128"
target triple = "x86_64-pc-linux-gnu"

%"class.ue2::ComponentWordBoundary" = type <{ %"class.ue2::Component", i32, i32, i8, i8, i8, [5 x i8] }>
%"class.ue2::Component" = type { ptr, i32, i32 }

; Function Attrs: mustprogress uwtable
define hidden void @_ZN3ue221ComponentWordBoundary13notePositionsERNS_18GlushkovBuildStateE(ptr noundef nonnull align 8 dereferenceable(27) %0, ptr noundef nonnull align 8 dereferenceable(8) %1) unnamed_addr #0 align 2 {
  %3 = alloca ptr, align 8
  %4 = alloca ptr, align 8
  %5 = alloca ptr, align 8
  store ptr %0, ptr %3, align 8
  store ptr %1, ptr %4, align 8
  %6 = load ptr, ptr %3, align 8
  call void @llvm.lifetime.start.p0(i64 8, ptr %5) #13
  %7 = load ptr, ptr %4, align 8
  %8 = load ptr, ptr %7, align 8
  %9 = getelementptr inbounds ptr, ptr %8, i64 2
  %10 = load ptr, ptr %9, align 8
  %11 = call noundef nonnull align 8 dereferenceable(8) ptr %10(ptr noundef nonnull align 8 dereferenceable(8) %7)
  store ptr %11, ptr %5, align 8
  %12 = load ptr, ptr %5, align 8
  %13 = load ptr, ptr %12, align 8
  %14 = getelementptr inbounds ptr, ptr %13, i64 2
  %15 = load ptr, ptr %14, align 8
  %16 = call noundef i32 %15(ptr noundef nonnull align 8 dereferenceable(8) %12, i64 noundef 1)
  %17 = getelementptr inbounds nuw %"class.ue2::ComponentWordBoundary", ptr %6, i32 0, i32 2
  store i32 %16, ptr %17, align 4
  %18 = getelementptr inbounds nuw %"class.ue2::ComponentWordBoundary", ptr %6, i32 0, i32 4
  %19 = load i8, ptr %18, align 1, !range !5, !noundef !6
  %20 = trunc i8 %19 to i1
  br i1 %20, label %21, label %40

21:                                               ; preds = %2
  %22 = getelementptr inbounds nuw %"class.ue2::ComponentWordBoundary", ptr %6, i32 0, i32 3
  %23 = load i8, ptr %22, align 8, !range !5, !noundef !6
  %24 = trunc i8 %23 to i1
  br i1 %24, label %25, label %32

25:                                               ; preds = %21
  %26 = load ptr, ptr %5, align 8
  %27 = getelementptr inbounds nuw %"class.ue2::ComponentWordBoundary", ptr %6, i32 0, i32 2
  %28 = load i32, ptr %27, align 4
  %29 = load ptr, ptr %26, align 8
  %30 = getelementptr inbounds ptr, ptr %29, i64 10
  %31 = load ptr, ptr %30, align 8
  call void %31(ptr noundef nonnull align 8 dereferenceable(8) %26, i32 noundef %28, i32 noundef 6144)
  br label %39

32:                                               ; preds = %21
  %33 = load ptr, ptr %5, align 8
  %34 = getelementptr inbounds nuw %"class.ue2::ComponentWordBoundary", ptr %6, i32 0, i32 2
  %35 = load i32, ptr %34, align 4
  %36 = load ptr, ptr %33, align 8
  %37 = getelementptr inbounds ptr, ptr %36, i64 10
  %38 = load ptr, ptr %37, align 8
  call void %38(ptr noundef nonnull align 8 dereferenceable(8) %33, i32 noundef %35, i32 noundef 1536)
  br label %39

39:                                               ; preds = %32, %25
  br label %59

40:                                               ; preds = %2
  %41 = getelementptr inbounds nuw %"class.ue2::ComponentWordBoundary", ptr %6, i32 0, i32 3
  %42 = load i8, ptr %41, align 8, !range !5, !noundef !6
  %43 = trunc i8 %42 to i1
  br i1 %43, label %44, label %51

44:                                               ; preds = %40
  %45 = load ptr, ptr %5, align 8
  %46 = getelementptr inbounds nuw %"class.ue2::ComponentWordBoundary", ptr %6, i32 0, i32 2
  %47 = load i32, ptr %46, align 4
  %48 = load ptr, ptr %45, align 8
  %49 = getelementptr inbounds ptr, ptr %48, i64 10
  %50 = load ptr, ptr %49, align 8
  call void %50(ptr noundef nonnull align 8 dereferenceable(8) %45, i32 noundef %47, i32 noundef 96)
  br label %58

51:                                               ; preds = %40
  %52 = load ptr, ptr %5, align 8
  %53 = getelementptr inbounds nuw %"class.ue2::ComponentWordBoundary", ptr %6, i32 0, i32 2
  %54 = load i32, ptr %53, align 4
  %55 = load ptr, ptr %52, align 8
  %56 = getelementptr inbounds ptr, ptr %55, i64 10
  %57 = load ptr, ptr %56, align 8
  call void %57(ptr noundef nonnull align 8 dereferenceable(8) %52, i32 noundef %54, i32 noundef 24)
  br label %58

58:                                               ; preds = %51, %44
  br label %59

59:                                               ; preds = %58, %39
  %60 = getelementptr inbounds nuw %"class.ue2::ComponentWordBoundary", ptr %6, i32 0, i32 2
  %61 = load i32, ptr %60, align 4
  %62 = getelementptr inbounds nuw %"class.ue2::ComponentWordBoundary", ptr %6, i32 0, i32 2
  %63 = load i32, ptr %62, align 4
  %64 = add i32 %63, 1
  call void @_ZN3ue29Component15recordPosBoundsEjj(ptr noundef nonnull align 8 dereferenceable(16) %6, i32 noundef %61, i32 noundef %64)
  call void @llvm.lifetime.end.p0(i64 8, ptr %5) #13
  ret void
}