; Function Attrs: mustprogress uwtable
define hidden void @_ZN3ue221ComponentWordBoundary13notePositionsERNS_18GlushkovBuildStateE(ptr noundef nonnull align 8 dereferenceable(27) initializes((20, 24)) %0, ptr noundef nonnull align 8 dereferenceable(8) %1) unnamed_addr #0 align 2 {
  %3 = load ptr, ptr %1, align 8
  %4 = getelementptr inbounds nuw i8, ptr %3, i64 16
  %5 = load ptr, ptr %4, align 8
  %6 = tail call noundef nonnull align 8 dereferenceable(8) ptr %5(ptr noundef nonnull align 8 dereferenceable(8) %1)
  %7 = load ptr, ptr %6, align 8
  %8 = getelementptr inbounds nuw i8, ptr %7, i64 16
  %9 = load ptr, ptr %8, align 8
  %10 = tail call noundef i32 %9(ptr noundef nonnull align 8 dereferenceable(8) %6, i64 noundef 1)
  %11 = getelementptr inbounds nuw i8, ptr %0, i64 20
  store i32 %10, ptr %11, align 4
  %12 = getelementptr inbounds nuw i8, ptr %0, i64 25
  %13 = load i8, ptr %12, align 1, !range !5, !noundef !6
  %14 = trunc nuw i8 %13 to i1
  %15 = getelementptr inbounds nuw i8, ptr %0, i64 24
  %16 = load i8, ptr %15, align 8, !range !5, !noundef !6
  %17 = trunc nuw i8 %16 to i1
  %18 = load ptr, ptr %6, align 8
  %19 = getelementptr inbounds nuw i8, ptr %18, i64 80
  %20 = load ptr, ptr %19, align 8
  %. = select i1 %17, i32 6144, i32 1536
  %.7 = select i1 %17, i32 96, i32 24
  %.sink = select i1 %14, i32 %., i32 %.7
  tail call void %20(ptr noundef nonnull align 8 dereferenceable(8) %6, i32 noundef %10, i32 noundef %.sink)
  %21 = load i32, ptr %11, align 4
  %22 = add i32 %21, 1
  tail call void @_ZN3ue29Component15recordPosBoundsEjj(ptr noundef nonnull align 8 dereferenceable(16) %0, i32 noundef %21, i32 noundef %22)
  ret void
}